target datalayout = "e-m:e-p270:32:32-p271:32:32-p272:64:64-i64:64-i128:128-f80:128-n8:16:32:64-S128"
target triple = "x86_64-pc-linux-gnu"

%struct.AVRational = type { i32, i32 }
%struct.AVCodecContext = type { ptr, i32, i32, ptr, i32, i32, ptr, ptr, ptr, i64, i32, i32, ptr, i32, %struct.AVRational, %struct.AVRational, %struct.AVRational, i32, i32, i32, i32, i32, %struct.AVRational, i32, i32, i32, i32, i32, i32, i32, i32, i32, i32, i32, ptr, ptr, i32, float, float, float, float, float, float, float, float, float, i32, i32, i32, i32, i32, i32, i32, i32, i32, i32, i32, i32, ptr, ptr, ptr, i32, i32, i32, i32, i32, i32, i32, i32, i32, i32, %struct.AVChannelLayout, i32, i32, i32, i32, i32, i32, i32, i32, ptr, i32, i32, i32, float, float, i32, i32, i32, i32, i32, ptr, i64, i64, float, float, i32, i32, ptr, ptr, i32, i32, i32, i32, i32, ptr, ptr, ptr, ptr, i32, i32, [8 x i64], i32, i32, i32, i32, i32, i32, i32, ptr, ptr, i32, i32, i32, i32, i32, i32, i32, i32, i32, i32, ptr, ptr, i32, i32, ptr, ptr, ptr, ptr, i32, i32, i64, i32, i32, i64, ptr, i64, ptr, i32, ptr, i32 }
%struct.AVChannelLayout = type { i32, i32, %union.anon, ptr }
%union.anon = type { i64 }
%struct.AVFrame = type { [8 x ptr], [8 x i32], ptr, i32, i32, i32, i32, i32, %struct.AVRational, i64, i64, %struct.AVRational, i32, ptr, i32, i32, [8 x ptr], ptr, i32, ptr, i32, i32, i32, i32, i32, i32, i32, i64, ptr, i32, ptr, ptr, i64, i64, i64, i64, ptr, %struct.AVChannelLayout, i64 }

@.str = private unnamed_addr constant [30 x i8] c"Assertion %s failed at %s:%d\0A\00", align 1
@.str.2 = private unnamed_addr constant [20 x i8] c"libavcodec/decode.c\00", align 1
@.str.23 = private unnamed_addr constant [23 x i8] c"reget_buffer() failed\0A\00", align 1
@.str.58 = private unnamed_addr constant [40 x i8] c"avctx->codec_type == AVMEDIA_TYPE_VIDEO\00", align 1
@.str.59 = private unnamed_addr constant [79 x i8] c"Picture changed from size:%dx%d fmt:%s to size:%dx%d fmt:%s in reget buffer()\0A\00", align 1

; Function Attrs: nounwind uwtable
define internal i32 @reget_buffer_internal(ptr noundef %0, ptr noundef %1, i32 noundef %2) #0 {
  %4 = alloca i32, align 4
  %5 = alloca ptr, align 8
  %6 = alloca ptr, align 8
  %7 = alloca i32, align 4
  %8 = alloca ptr, align 8
  %9 = alloca i32, align 4
  %10 = alloca i32, align 4
  store ptr %0, ptr %5, align 8, !tbaa !4
  store ptr %1, ptr %6, align 8, !tbaa !51
  store i32 %2, ptr %7, align 4, !tbaa !41
  call void @llvm.lifetime.start.p0(i64 8, ptr %8) #11
  call void @llvm.lifetime.start.p0(i64 4, ptr %9) #11
  br label %11

11:                                               ; preds = %3
  %12 = load ptr, ptr %5, align 8, !tbaa !4
  %13 = getelementptr inbounds nuw %struct.AVCodecContext, ptr %12, i32 0, i32 2
  %14 = load i32, ptr %13, align 4, !tbaa !98
  %15 = icmp eq i32 %14, 0
  br i1 %15, label %17, label %16

16:                                               ; preds = %11
  call void (ptr, i32, ptr, ...) @av_log(ptr noundef null, i32 noundef 0, ptr noundef @.str, ptr noundef @.str.58, ptr noundef @.str.2, i32 noundef 1692)
  call void @abort() #12
  unreachable

17:                                               ; preds = %11
  br label %18

18:                                               ; preds = %17
  br label %19

19:                                               ; preds = %18
  %20 = load ptr, ptr %6, align 8, !tbaa !51
  %21 = getelementptr inbounds nuw %struct.AVFrame, ptr %20, i32 0, i32 21
  %22 = load i32, ptr %21, align 4, !tbaa !62
  %23 = and i32 %22, -5
  store i32 %23, ptr %21, align 4, !tbaa !62
  %24 = load ptr, ptr %6, align 8, !tbaa !51
  %25 = getelementptr inbounds nuw %struct.AVFrame, ptr %24, i32 0, i32 0
  %26 = getelementptr inbounds [8 x ptr], ptr %25, i64 0, i64 0
  %27 = load ptr, ptr %26, align 8, !tbaa !143
  %28 = icmp ne ptr %27, null
  br i1 %28, label %29, label %76

29:                                               ; preds = %19
  %30 = load ptr, ptr %6, align 8, !tbaa !51
  %31 = getelementptr inbounds nuw %struct.AVFrame, ptr %30, i32 0, i32 3
  %32 = load i32, ptr %31, align 8, !tbaa !99
  %33 = load ptr, ptr %5, align 8, !tbaa !4
  %34 = getelementptr inbounds nuw %struct.AVCodecContext, ptr %33, i32 0, i32 18
  %35 = load i32, ptr %34, align 8, !tbaa !100
  %36 = icmp ne i32 %32, %35
  br i1 %36, label %53, label %37

37:                                               ; preds = %29
  %38 = load ptr, ptr %6, align 8, !tbaa !51
  %39 = getelementptr inbounds nuw %struct.AVFrame, ptr %38, i32 0, i32 4
  %40 = load i32, ptr %39, align 4, !tbaa !101
  %41 = load ptr, ptr %5, align 8, !tbaa !4
  %42 = getelementptr inbounds nuw %struct.AVCodecContext, ptr %41, i32 0, i32 19
  %43 = load i32, ptr %42, align 4, !tbaa !102
  %44 = icmp ne i32 %40, %43
  br i1 %44, label %53, label %45

45:                                               ; preds = %37
  %46 = load ptr, ptr %6, align 8, !tbaa !51
  %47 = getelementptr inbounds nuw %struct.AVFrame, ptr %46, i32 0, i32 6
  %48 = load i32, ptr %47, align 4, !tbaa !84
  %49 = load ptr, ptr %5, align 8, !tbaa !4
  %50 = getelementptr inbounds nuw %struct.AVCodecContext, ptr %49, i32 0, i32 23
  %51 = load i32, ptr %50, align 8, !tbaa !253
  %52 = icmp ne i32 %48, %51
  br i1 %52, label %53, label %76

53:                                               ; preds = %45, %37, %29
  %54 = load ptr, ptr %5, align 8, !tbaa !4
  %55 = load ptr, ptr %6, align 8, !tbaa !51
  %56 = getelementptr inbounds nuw %struct.AVFrame, ptr %55, i32 0, i32 3
  %57 = load i32, ptr %56, align 8, !tbaa !99
  %58 = load ptr, ptr %6, align 8, !tbaa !51
  %59 = getelementptr inbounds nuw %struct.AVFrame, ptr %58, i32 0, i32 4
  %60 = load i32, ptr %59, align 4, !tbaa !101
  %61 = load ptr, ptr %6, align 8, !tbaa !51
  %62 = getelementptr inbounds nuw %struct.AVFrame, ptr %61, i32 0, i32 6
  %63 = load i32, ptr %62, align 4, !tbaa !84
  %64 = call ptr @av_get_pix_fmt_name(i32 noundef %63)
  %65 = load ptr, ptr %5, align 8, !tbaa !4
  %66 = getelementptr inbounds nuw %struct.AVCodecContext, ptr %65, i32 0, i32 18
  %67 = load i32, ptr %66, align 8, !tbaa !100
  %68 = load ptr, ptr %5, align 8, !tbaa !4
  %69 = getelementptr inbounds nuw %struct.AVCodecContext, ptr %68, i32 0, i32 19
  %70 = load i32, ptr %69, align 4, !tbaa !102
  %71 = load ptr, ptr %5, align 8, !tbaa !4
  %72 = getelementptr inbounds nuw %struct.AVCodecContext, ptr %71, i32 0, i32 23
  %73 = load i32, ptr %72, align 8, !tbaa !253
  %74 = call ptr @av_get_pix_fmt_name(i32 noundef %73)
  call void (ptr, i32, ptr, ...) @av_log(ptr noundef %54, i32 noundef 24, ptr noundef @.str.59, i32 noundef %57, i32 noundef %60, ptr noundef %64, i32 noundef %67, i32 noundef %70, ptr noundef %74)
  %75 = load ptr, ptr %6, align 8, !tbaa !51
  call void @av_frame_unref(ptr noundef %75)
  br label %76

76:                                               ; preds = %53, %45, %19
  %77 = load ptr, ptr %6, align 8, !tbaa !51
  %78 = getelementptr inbounds nuw %struct.AVFrame, ptr %77, i32 0, i32 0
  %79 = getelementptr inbounds [8 x ptr], ptr %78, i64 0, i64 0
  %80 = load ptr, ptr %79, align 8, !tbaa !143
  %81 = icmp ne ptr %80, null
  br i1 %81, label %86, label %82

82:                                               ; preds = %76
  %83 = load ptr, ptr %5, align 8, !tbaa !4
  %84 = load ptr, ptr %6, align 8, !tbaa !51
  %85 = call i32 @ff_get_buffer(ptr noundef %83, ptr noundef %84, i32 noundef 1)
  store i32 %85, ptr %4, align 4
  store i32 1, ptr %10, align 4
  br label %121

86:                                               ; preds = %76
  %87 = load ptr, ptr %6, align 8, !tbaa !51
  %88 = getelementptr inbounds nuw %struct.AVFrame, ptr %87, i32 0, i32 19
  %89 = load ptr, ptr %6, align 8, !tbaa !51
  %90 = getelementptr inbounds nuw %struct.AVFrame, ptr %89, i32 0, i32 20
  call void @av_frame_side_data_free(ptr noundef %88, ptr noundef %90)
  %91 = load i32, ptr %7, align 4, !tbaa !41
  %92 = and i32 %91, 1
  %93 = icmp ne i32 %92, 0
  br i1 %93, label %98, label %94

94:                                               ; preds = %86
  %95 = load ptr, ptr %6, align 8, !tbaa !51
  %96 = call i32 @av_frame_is_writable(ptr noundef %95)
  %97 = icmp ne i32 %96, 0
  br i1 %97, label %98, label %102

98:                                               ; preds = %94, %86
  %99 = load ptr, ptr %5, align 8, !tbaa !4
  %100 = load ptr, ptr %6, align 8, !tbaa !51
  %101 = call i32 @ff_decode_frame_props(ptr noundef %99, ptr noundef %100)
  store i32 %101, ptr %4, align 4
  store i32 1, ptr %10, align 4
  br label %121

102:                                              ; preds = %94
  %103 = call ptr @av_frame_alloc()
  store ptr %103, ptr %8, align 8, !tbaa !51
  %104 = load ptr, ptr %8, align 8, !tbaa !51
  %105 = icmp ne ptr %104, null
  br i1 %105, label %107, label %106

106:                                              ; preds = %102
  store i32 -12, ptr %4, align 4
  store i32 1, ptr %10, align 4
  br label %121

107:                                              ; preds = %102
  %108 = load ptr, ptr %8, align 8, !tbaa !51
  %109 = load ptr, ptr %6, align 8, !tbaa !51
  call void @av_frame_move_ref(ptr noundef %108, ptr noundef %109)
  %110 = load ptr, ptr %5, align 8, !tbaa !4
  %111 = load ptr, ptr %6, align 8, !tbaa !51
  %112 = call i32 @ff_get_buffer(ptr noundef %110, ptr noundef %111, i32 noundef 1)
  store i32 %112, ptr %9, align 4, !tbaa !41
  %113 = load i32, ptr %9, align 4, !tbaa !41
  %114 = icmp slt i32 %113, 0
  br i1 %114, label %115, label %117

115:                                              ; preds = %107
  call void @av_frame_free(ptr noundef %8)
  %116 = load i32, ptr %9, align 4, !tbaa !41
  store i32 %116, ptr %4, align 4
  store i32 1, ptr %10, align 4
  br label %121

117:                                              ; preds = %107
  %118 = load ptr, ptr %6, align 8, !tbaa !51
  %119 = load ptr, ptr %8, align 8, !tbaa !51
  %120 = call i32 @av_frame_copy(ptr noundef %118, ptr noundef %119)
  call void @av_frame_free(ptr noundef %8)
  store i32 0, ptr %4, align 4
  store i32 1, ptr %10, align 4
  br label %121

121:                                              ; preds = %117, %115, %106, %98, %82
  call void @llvm.lifetime.end.p0(i64 4, ptr %9) #11
  call void @llvm.lifetime.end.p0(i64 8, ptr %8) #11
  %122 = load i32, ptr %4, align 4
  ret i32 %122
}

; Function Attrs: nounwind uwtable
define i32 @ff_reget_buffer(ptr noundef %0, ptr noundef %1, i32 noundef %2) #0 {
  %4 = alloca ptr, align 8
  %5 = alloca ptr, align 8
  %6 = alloca i32, align 4
  %7 = alloca i32, align 4
  store ptr %0, ptr %4, align 8, !tbaa !4
  store ptr %1, ptr %5, align 8, !tbaa !51
  store i32 %2, ptr %6, align 4, !tbaa !41
  call void @llvm.lifetime.start.p0(i64 4, ptr %7) #11
  %8 = load ptr, ptr %4, align 8, !tbaa !4
  %9 = load ptr, ptr %5, align 8, !tbaa !51
  %10 = load i32, ptr %6, align 4, !tbaa !41
  %11 = call i32 @reget_buffer_internal(ptr noundef %8, ptr noundef %9, i32 noundef %10)
  store i32 %11, ptr %7, align 4, !tbaa !41
  %12 = load i32, ptr %7, align 4, !tbaa !41
  %13 = icmp slt i32 %12, 0
  br i1 %13, label %14, label %16

14:                                               ; preds = %3
  %15 = load ptr, ptr %4, align 8, !tbaa !4
  call void (ptr, i32, ptr, ...) @av_log(ptr noundef %15, i32 noundef 16, ptr noundef @.str.23)
  br label %16

16:                                               ; preds = %14, %3
  %17 = load i32, ptr %7, align 4, !tbaa !41
  call void @llvm.lifetime.end.p0(i64 4, ptr %7) #11
  ret i32 %17
}