; Function Attrs: nounwind uwtable
define i32 @ff_reget_buffer(ptr noundef %0, ptr noundef %1, i32 noundef %2) local_unnamed_addr #0 {
  %4 = alloca ptr, align 8
  call void @llvm.lifetime.start.p0(i64 8, ptr nonnull %4) #10
  %5 = getelementptr inbounds nuw i8, ptr %0, i64 12
  %6 = load i32, ptr %5, align 4, !tbaa !92
  %7 = icmp eq i32 %6, 0
  br i1 %7, label %9, label %8

8:                                                ; preds = %3
  tail call void (ptr, i32, ptr, ...) @av_log(ptr noundef null, i32 noundef 0, ptr noundef nonnull @.str, ptr noundef nonnull @.str.58, ptr noundef nonnull @.str.2, i32 noundef 1692) #10
  tail call void @abort() #11
  unreachable

9:                                                ; preds = %3
  %10 = getelementptr inbounds nuw i8, ptr %1, i64 276
  %11 = load i32, ptr %10, align 4, !tbaa !64
  %12 = and i32 %11, -5
  store i32 %12, ptr %10, align 4, !tbaa !64
  %13 = load ptr, ptr %1, align 8, !tbaa !116
  %.not.i = icmp eq ptr %13, null
  br i1 %.not.i, label %.thread.i, label %14

14:                                               ; preds = %9
  %15 = getelementptr inbounds nuw i8, ptr %1, i64 104
  %16 = load i32, ptr %15, align 8, !tbaa !93
  %17 = getelementptr inbounds nuw i8, ptr %0, i64 112
  %18 = load i32, ptr %17, align 8, !tbaa !46
  %.not34.i = icmp eq i32 %16, %18
  %19 = getelementptr inbounds nuw i8, ptr %1, i64 108
  %20 = load i32, ptr %19, align 4, !tbaa !94
  br i1 %.not34.i, label %21, label %._crit_edge.i

21:                                               ; preds = %14
  %22 = getelementptr inbounds nuw i8, ptr %0, i64 116
  %23 = load i32, ptr %22, align 4, !tbaa !47
  %.not35.i = icmp eq i32 %20, %23
  br i1 %.not35.i, label %24, label %._crit_edge.i

24:                                               ; preds = %21
  %25 = getelementptr inbounds nuw i8, ptr %1, i64 116
  %26 = load i32, ptr %25, align 4, !tbaa !87
  %27 = getelementptr inbounds nuw i8, ptr %0, i64 136
  %28 = load i32, ptr %27, align 8, !tbaa !228
  %.not36.i = icmp eq i32 %26, %28
  br i1 %.not36.i, label %.thread43.i, label %._crit_edge.i

._crit_edge.i:                                    ; preds = %24, %21, %14
  %29 = getelementptr inbounds nuw i8, ptr %1, i64 116
  %30 = load i32, ptr %29, align 4, !tbaa !87
  %31 = tail call ptr @av_get_pix_fmt_name(i32 noundef %30) #10
  %32 = load i32, ptr %17, align 8, !tbaa !46
  %33 = getelementptr inbounds nuw i8, ptr %0, i64 116
  %34 = load i32, ptr %33, align 4, !tbaa !47
  %35 = getelementptr inbounds nuw i8, ptr %0, i64 136
  %36 = load i32, ptr %35, align 8, !tbaa !228
  %37 = tail call ptr @av_get_pix_fmt_name(i32 noundef %36) #10
  tail call void (ptr, i32, ptr, ...) @av_log(ptr noundef nonnull %0, i32 noundef 24, ptr noundef nonnull @.str.59, i32 noundef %16, i32 noundef %20, ptr noundef %31, i32 noundef %32, i32 noundef %34, ptr noundef %37) #10
  tail call void @av_frame_unref(ptr noundef nonnull %1) #10
  %.pr.pre.i = load ptr, ptr %1, align 8, !tbaa !116
  %38 = icmp eq ptr %.pr.pre.i, null
  br i1 %38, label %.thread.i, label %.thread43.i

.thread.i:                                        ; preds = %._crit_edge.i, %9
  %39 = tail call i32 @ff_get_buffer(ptr noundef nonnull %0, ptr noundef nonnull %1, i32 noundef 1)
  br label %reget_buffer_internal.exit

.thread43.i:                                      ; preds = %._crit_edge.i, %24
  %40 = getelementptr inbounds nuw i8, ptr %1, i64 264
  %41 = getelementptr inbounds nuw i8, ptr %1, i64 272
  tail call void @av_frame_side_data_free(ptr noundef nonnull %40, ptr noundef nonnull %41) #10
  %42 = and i32 %2, 1
  %.not38.i = icmp eq i32 %42, 0
  br i1 %.not38.i, label %43, label %45

43:                                               ; preds = %.thread43.i
  %44 = tail call i32 @av_frame_is_writable(ptr noundef nonnull %1) #10
  %.not39.i = icmp eq i32 %44, 0
  br i1 %.not39.i, label %47, label %45

45:                                               ; preds = %43, %.thread43.i
  %46 = tail call i32 @ff_decode_frame_props(ptr noundef nonnull %0, ptr noundef nonnull %1)
  br label %reget_buffer_internal.exit

47:                                               ; preds = %43
  %48 = tail call ptr @av_frame_alloc() #10
  store ptr %48, ptr %4, align 8, !tbaa !247
  %.not40.i = icmp eq ptr %48, null
  br i1 %.not40.i, label %reget_buffer_internal.exit.thread, label %49

49:                                               ; preds = %47
  tail call void @av_frame_move_ref(ptr noundef nonnull %48, ptr noundef nonnull %1) #10
  %50 = tail call i32 @ff_get_buffer(ptr noundef nonnull %0, ptr noundef nonnull %1, i32 noundef 1)
  %51 = icmp slt i32 %50, 0
  br i1 %51, label %52, label %reget_buffer_internal.exit.thread8

52:                                               ; preds = %49
  call void @av_frame_free(ptr noundef nonnull %4) #10
  br label %reget_buffer_internal.exit.thread

reget_buffer_internal.exit.thread8:               ; preds = %49
  %53 = tail call i32 @av_frame_copy(ptr noundef nonnull %1, ptr noundef nonnull %48) #10
  call void @av_frame_free(ptr noundef nonnull %4) #10
  call void @llvm.lifetime.end.p0(i64 8, ptr nonnull %4) #10
  br label %56

reget_buffer_internal.exit.thread:                ; preds = %52, %47
  %.0.i.ph = phi i32 [ -12, %47 ], [ %50, %52 ]
  call void @llvm.lifetime.end.p0(i64 8, ptr nonnull %4) #10
  br label %55

reget_buffer_internal.exit:                       ; preds = %.thread.i, %45
  %.0.i = phi i32 [ %46, %45 ], [ %39, %.thread.i ]
  call void @llvm.lifetime.end.p0(i64 8, ptr nonnull %4) #10
  %54 = icmp slt i32 %.0.i, 0
  br i1 %54, label %55, label %56

55:                                               ; preds = %reget_buffer_internal.exit.thread, %reget_buffer_internal.exit
  %.0.i7 = phi i32 [ %.0.i.ph, %reget_buffer_internal.exit.thread ], [ %.0.i, %reget_buffer_internal.exit ]
  call void (ptr, i32, ptr, ...) @av_log(ptr noundef nonnull %0, i32 noundef 16, ptr noundef nonnull @.str.23) #10
  br label %56

56:                                               ; preds = %reget_buffer_internal.exit.thread8, %55, %reget_buffer_internal.exit
  %.0.i6 = phi i32 [ %.0.i7, %55 ], [ %.0.i, %reget_buffer_internal.exit ], [ 0, %reget_buffer_internal.exit.thread8 ]
  ret i32 %.0.i6
}